target datalayout = "e-m:e-p270:32:32-p271:32:32-p272:64:64-i64:64-i128:128-f80:128-n8:16:32:64-S128"
target triple = "x86_64-pc-linux-gnu"

; Function Attrs: nounwind uwtable
define hidden signext i8 @_mi_toupper(i8 noundef signext %0) #0 {
  %2 = alloca i8, align 1
  %3 = alloca i8, align 1
  store i8 %0, ptr %3, align 1, !tbaa !3
  %4 = load i8, ptr %3, align 1, !tbaa !3
  %5 = sext i8 %4 to i32
  %6 = icmp sge i32 %5, 97
  br i1 %6, label %7, label %17

7:                                                ; preds = %1
  %8 = load i8, ptr %3, align 1, !tbaa !3
  %9 = sext i8 %8 to i32
  %10 = icmp sle i32 %9, 122
  br i1 %10, label %11, label %17

11:                                               ; preds = %7
  %12 = load i8, ptr %3, align 1, !tbaa !3
  %13 = sext i8 %12 to i32
  %14 = sub nsw i32 %13, 97
  %15 = add nsw i32 %14, 65
  %16 = trunc i32 %15 to i8
  store i8 %16, ptr %2, align 1
  br label %19

17:                                               ; preds = %7, %1
  %18 = load i8, ptr %3, align 1, !tbaa !3
  store i8 %18, ptr %2, align 1
  br label %19

19:                                               ; preds = %17, %11
  %20 = load i8, ptr %2, align 1
  ret i8 %20
}

; Function Attrs: nounwind uwtable
define hidden i32 @_mi_strnicmp(ptr noundef %0, ptr noundef %1, i64 noundef %2) #0 {
  %4 = alloca i32, align 4
  %5 = alloca ptr, align 8
  %6 = alloca ptr, align 8
  %7 = alloca i64, align 8
  store ptr %0, ptr %5, align 8, !tbaa !6
  store ptr %1, ptr %6, align 8, !tbaa !6
  store i64 %2, ptr %7, align 8, !tbaa !9
  %8 = load i64, ptr %7, align 8, !tbaa !9
  %9 = icmp eq i64 %8, 0
  br i1 %9, label %10, label %11

10:                                               ; preds = %3
  store i32 0, ptr %4, align 4
  br label %60

11:                                               ; preds = %3
  br label %12

12:                                               ; preds = %39, %11
  %13 = load ptr, ptr %5, align 8, !tbaa !6
  %14 = load i8, ptr %13, align 1, !tbaa !3
  %15 = sext i8 %14 to i32
  %16 = icmp ne i32 %15, 0
  br i1 %16, label %17, label %25

17:                                               ; preds = %12
  %18 = load ptr, ptr %6, align 8, !tbaa !6
  %19 = load i8, ptr %18, align 1, !tbaa !3
  %20 = sext i8 %19 to i32
  %21 = icmp ne i32 %20, 0
  br i1 %21, label %22, label %25

22:                                               ; preds = %17
  %23 = load i64, ptr %7, align 8, !tbaa !9
  %24 = icmp ugt i64 %23, 0
  br label %25

25:                                               ; preds = %22, %17, %12
  %26 = phi i1 [ false, %17 ], [ false, %12 ], [ %24, %22 ]
  br i1 %26, label %27, label %46

27:                                               ; preds = %25
  %28 = load ptr, ptr %5, align 8, !tbaa !6
  %29 = load i8, ptr %28, align 1, !tbaa !3
  %30 = call signext i8 @_mi_toupper(i8 noundef signext %29) #4
  %31 = sext i8 %30 to i32
  %32 = load ptr, ptr %6, align 8, !tbaa !6
  %33 = load i8, ptr %32, align 1, !tbaa !3
  %34 = call signext i8 @_mi_toupper(i8 noundef signext %33) #4
  %35 = sext i8 %34 to i32
  %36 = icmp ne i32 %31, %35
  br i1 %36, label %37, label %38

37:                                               ; preds = %27
  br label %46

38:                                               ; preds = %27
  br label %39

39:                                               ; preds = %38
  %40 = load ptr, ptr %5, align 8, !tbaa !6
  %41 = getelementptr inbounds nuw i8, ptr %40, i32 1
  store ptr %41, ptr %5, align 8, !tbaa !6
  %42 = load ptr, ptr %6, align 8, !tbaa !6
  %43 = getelementptr inbounds nuw i8, ptr %42, i32 1
  store ptr %43, ptr %6, align 8, !tbaa !6
  %44 = load i64, ptr %7, align 8, !tbaa !9
  %45 = add i64 %44, -1
  store i64 %45, ptr %7, align 8, !tbaa !9
  br label %12, !llvm.loop !11

46:                                               ; preds = %37, %25
  %47 = load i64, ptr %7, align 8, !tbaa !9
  %48 = icmp eq i64 %47, 0
  br i1 %48, label %49, label %50

49:                                               ; preds = %46
  br label %58

50:                                               ; preds = %46
  %51 = load ptr, ptr %5, align 8, !tbaa !6
  %52 = load i8, ptr %51, align 1, !tbaa !3
  %53 = sext i8 %52 to i32
  %54 = load ptr, ptr %6, align 8, !tbaa !6
  %55 = load i8, ptr %54, align 1, !tbaa !3
  %56 = sext i8 %55 to i32
  %57 = sub nsw i32 %53, %56
  br label %58

58:                                               ; preds = %50, %49
  %59 = phi i32 [ 0, %49 ], [ %57, %50 ]
  store i32 %59, ptr %4, align 4
  br label %60

60:                                               ; preds = %58, %10
  %61 = load i32, ptr %4, align 4
  ret i32 %61
}