; Function Attrs: nofree norecurse nosync nounwind memory(argmem: read) uwtable
define hidden range(i32 -255, 256) i32 @_mi_strnicmp(ptr noundef readonly captures(none) %0, ptr noundef readonly captures(none) %1, i64 noundef %2) local_unnamed_addr #1 {
  %4 = icmp eq i64 %2, 0
  br i1 %4, label %26, label %.preheader

.preheader:                                       ; preds = %3
  %5 = load i8, ptr %0, align 1, !tbaa !3
  %.not24 = icmp eq i8 %5, 0
  br i1 %.not24, label %.critedge..critedge.thread_crit_edge, label %.lr.ph

.lr.ph:                                           ; preds = %.preheader, %15
  %6 = phi i8 [ %19, %15 ], [ %5, %.preheader ]
  %.027 = phi i64 [ %18, %15 ], [ %2, %.preheader ]
  %.01326 = phi ptr [ %17, %15 ], [ %1, %.preheader ]
  %.01425 = phi ptr [ %16, %15 ], [ %0, %.preheader ]
  %7 = load i8, ptr %.01326, align 1, !tbaa !3
  %8 = icmp ne i8 %7, 0
  %9 = icmp ne i64 %.027, 0
  %or.cond = select i1 %8, i1 %9, i1 false
  br i1 %or.cond, label %10, label %.critedge

10:                                               ; preds = %.lr.ph
  %11 = add i8 %6, -97
  %or.cond.i = icmp ult i8 %11, 26
  %12 = add nsw i8 %6, -32
  %.0.i = select i1 %or.cond.i, i8 %12, i8 %6
  %13 = add i8 %7, -97
  %or.cond.i18 = icmp ult i8 %13, 26
  %14 = add nsw i8 %7, -32
  %.0.i19 = select i1 %or.cond.i18, i8 %14, i8 %7
  %.not17 = icmp eq i8 %.0.i, %.0.i19
  br i1 %.not17, label %15, label %.critedge.thread

15:                                               ; preds = %10
  %16 = getelementptr inbounds nuw i8, ptr %.01425, i64 1
  %17 = getelementptr inbounds nuw i8, ptr %.01326, i64 1
  %18 = add i64 %.027, -1
  %19 = load i8, ptr %16, align 1, !tbaa !3
  %.not = icmp eq i8 %19, 0
  br i1 %.not, label %.critedge, label %.lr.ph, !llvm.loop !6

.critedge:                                        ; preds = %15, %.lr.ph
  %.013.lcssa.ph = phi ptr [ %17, %15 ], [ %.01326, %.lr.ph ]
  %.0.lcssa.ph = phi i64 [ %18, %15 ], [ %.027, %.lr.ph ]
  %.lcssa.ph = phi i8 [ 0, %15 ], [ %6, %.lr.ph ]
  %20 = icmp eq i64 %.0.lcssa.ph, 0
  br i1 %20, label %26, label %.critedge..critedge.thread_crit_edge

.critedge..critedge.thread_crit_edge:             ; preds = %.preheader, %.critedge
  %.lcssa42 = phi i8 [ %.lcssa.ph, %.critedge ], [ 0, %.preheader ]
  %.013.lcssa41 = phi ptr [ %.013.lcssa.ph, %.critedge ], [ %1, %.preheader ]
  %.pre = load i8, ptr %.013.lcssa41, align 1, !tbaa !3
  br label %.critedge.thread

.critedge.thread:                                 ; preds = %10, %.critedge..critedge.thread_crit_edge
  %21 = phi i8 [ %.pre, %.critedge..critedge.thread_crit_edge ], [ %7, %10 ]
  %22 = phi i8 [ %.lcssa42, %.critedge..critedge.thread_crit_edge ], [ %6, %10 ]
  %23 = sext i8 %22 to i32
  %24 = sext i8 %21 to i32
  %25 = sub nsw i32 %23, %24
  br label %26

26:                                               ; preds = %.critedge.thread, %.critedge, %3
  %.015 = phi i32 [ 0, %3 ], [ %25, %.critedge.thread ], [ 0, %.critedge ]
  ret i32 %.015
}